target datalayout = "e-m:e-p270:32:32-p271:32:32-p272:64:64-i64:64-i128:128-f80:128-n8:16:32:64-S128"
target triple = "x86_64-pc-linux-gnu"

%struct.mi_os_mem_config_s = type { i64, i64, i64, i64, i64, i8, i8, i8 }

@aligned_base = internal global i64 0, align 64
@mi_os_mem_config = internal global { i64, i64, i64, i64, i64, i8, i8, i8, [5 x i8] } { i64 4096, i64 0, i64 4096, i64 34359738368, i64 48, i8 1, i8 0, i8 1, [5 x i8] zeroinitializer }, align 8
@_mi_heap_default = external thread_local(initialexec) global ptr, align 8

; Function Attrs: inlinehint nounwind uwtable
define internal ptr @mi_prim_get_default_heap() #4 {
  %1 = call align 8 ptr @llvm.threadlocal.address.p0(ptr align 8 @_mi_heap_default)
  %2 = load ptr, ptr %1, align 8, !tbaa !17
  ret ptr %2
}

; Function Attrs: inlinehint nounwind uwtable
define internal i64 @_mi_align_up(i64 noundef %0, i64 noundef %1) #4 {
  %3 = alloca i64, align 8
  %4 = alloca i64, align 8
  %5 = alloca i64, align 8
  %6 = alloca i64, align 8
  %7 = alloca i32, align 4
  store i64 %0, ptr %4, align 8, !tbaa !14
  store i64 %1, ptr %5, align 8, !tbaa !14
  call void @llvm.lifetime.start.p0(i64 8, ptr %6) #9
  %8 = load i64, ptr %5, align 8, !tbaa !14
  %9 = sub i64 %8, 1
  store i64 %9, ptr %6, align 8, !tbaa !14
  %10 = load i64, ptr %5, align 8, !tbaa !14
  %11 = load i64, ptr %6, align 8, !tbaa !14
  %12 = and i64 %10, %11
  %13 = icmp eq i64 %12, 0
  br i1 %13, label %14, label %21

14:                                               ; preds = %2
  %15 = load i64, ptr %4, align 8, !tbaa !14
  %16 = load i64, ptr %6, align 8, !tbaa !14
  %17 = add i64 %15, %16
  %18 = load i64, ptr %6, align 8, !tbaa !14
  %19 = xor i64 %18, -1
  %20 = and i64 %17, %19
  store i64 %20, ptr %3, align 8
  store i32 1, ptr %7, align 4
  br label %29

21:                                               ; preds = %2
  %22 = load i64, ptr %4, align 8, !tbaa !14
  %23 = load i64, ptr %6, align 8, !tbaa !14
  %24 = add i64 %22, %23
  %25 = load i64, ptr %5, align 8, !tbaa !14
  %26 = udiv i64 %24, %25
  %27 = load i64, ptr %5, align 8, !tbaa !14
  %28 = mul i64 %26, %27
  store i64 %28, ptr %3, align 8
  store i32 1, ptr %7, align 4
  br label %29

29:                                               ; preds = %21, %14
  call void @llvm.lifetime.end.p0(i64 8, ptr %6) #9
  %30 = load i64, ptr %3, align 8
  ret i64 %30
}

; Function Attrs: nounwind uwtable
define hidden ptr @_mi_os_get_aligned_hint(i64 noundef %0, i64 noundef %1) #0 {
  %3 = alloca ptr, align 8
  %4 = alloca i64, align 8
  %5 = alloca i64, align 8
  %6 = alloca i64, align 8
  %7 = alloca i64, align 8
  %8 = alloca i64, align 8
  %9 = alloca i64, align 8
  %10 = alloca i64, align 8
  %11 = alloca i64, align 8
  %12 = alloca i64, align 8
  %13 = alloca i8, align 1
  %14 = alloca i64, align 8
  %15 = alloca i64, align 8
  %16 = alloca i32, align 4
  store i64 %0, ptr %4, align 8, !tbaa !14
  store i64 %1, ptr %5, align 8, !tbaa !14
  %17 = load i64, ptr %4, align 8, !tbaa !14
  %18 = icmp ule i64 %17, 1
  br i1 %18, label %22, label %19

19:                                               ; preds = %2
  %20 = load i64, ptr %4, align 8, !tbaa !14
  %21 = icmp ugt i64 %20, 33554432
  br i1 %21, label %22, label %23

22:                                               ; preds = %19, %2
  store ptr null, ptr %3, align 8
  br label %79

23:                                               ; preds = %19
  %24 = load i64, ptr getelementptr inbounds nuw (%struct.mi_os_mem_config_s, ptr @mi_os_mem_config, i32 0, i32 4), align 8, !tbaa !15
  %25 = icmp ult i64 %24, 46
  br i1 %25, label %26, label %27

26:                                               ; preds = %23
  store ptr null, ptr %3, align 8
  br label %79

27:                                               ; preds = %23
  %28 = load i64, ptr %5, align 8, !tbaa !14
  %29 = call i64 @_mi_align_up(i64 noundef %28, i64 noundef 33554432) #8
  store i64 %29, ptr %5, align 8, !tbaa !14
  %30 = load i64, ptr %5, align 8, !tbaa !14
  %31 = icmp ugt i64 %30, 1073741824
  br i1 %31, label %32, label %33

32:                                               ; preds = %27
  store ptr null, ptr %3, align 8
  br label %79

33:                                               ; preds = %27
  call void @llvm.lifetime.start.p0(i64 8, ptr %6) #9
  %34 = load i64, ptr %5, align 8, !tbaa !14
  store i64 %34, ptr %7, align 8, !tbaa !14
  %35 = load i64, ptr %7, align 8
  %36 = atomicrmw add ptr @aligned_base, i64 %35 acq_rel, align 64
  store i64 %36, ptr %8, align 8
  %37 = load i64, ptr %8, align 8, !tbaa !14
  store i64 %37, ptr %6, align 8, !tbaa !14
  %38 = load i64, ptr %6, align 8, !tbaa !14
  %39 = icmp eq i64 %38, 0
  br i1 %39, label %43, label %40

40:                                               ; preds = %33
  %41 = load i64, ptr %6, align 8, !tbaa !14
  %42 = icmp ugt i64 %41, 32985348833280
  br i1 %42, label %43, label %69

43:                                               ; preds = %40, %33
  call void @llvm.lifetime.start.p0(i64 8, ptr %9) #9
  store i64 2199023255552, ptr %9, align 8, !tbaa !14
  call void @llvm.lifetime.start.p0(i64 8, ptr %10) #9
  %44 = call ptr @mi_prim_get_default_heap() #8
  %45 = call i64 @_mi_heap_random_next(ptr noundef %44) #8
  store i64 %45, ptr %10, align 8, !tbaa !14
  %46 = load i64, ptr %9, align 8, !tbaa !14
  %47 = load i64, ptr %10, align 8, !tbaa !14
  %48 = lshr i64 %47, 17
  %49 = and i64 %48, 1048575
  %50 = mul i64 33554432, %49
  %51 = urem i64 %50, 4398046511104
  %52 = add i64 %46, %51
  store i64 %52, ptr %9, align 8, !tbaa !14
  call void @llvm.lifetime.start.p0(i64 8, ptr %11) #9
  %53 = load i64, ptr %6, align 8, !tbaa !14
  %54 = load i64, ptr %5, align 8, !tbaa !14
  %55 = add i64 %53, %54
  store i64 %55, ptr %11, align 8, !tbaa !14
  %56 = load i64, ptr %9, align 8, !tbaa !14
  store i64 %56, ptr %12, align 8, !tbaa !14
  %57 = load i64, ptr %11, align 8
  %58 = load i64, ptr %12, align 8
  %59 = cmpxchg ptr @aligned_base, i64 %57, i64 %58 acq_rel acquire, align 64
  %60 = extractvalue { i64, i1 } %59, 0
  %61 = extractvalue { i64, i1 } %59, 1
  br i1 %61, label %63, label %62

62:                                               ; preds = %43
  store i64 %60, ptr %11, align 8
  br label %63

63:                                               ; preds = %62, %43
  %64 = zext i1 %61 to i8
  store i8 %64, ptr %13, align 1, !tbaa !16
  %65 = load i64, ptr %5, align 8, !tbaa !14
  store i64 %65, ptr %14, align 8, !tbaa !14
  %66 = load i64, ptr %14, align 8
  %67 = atomicrmw add ptr @aligned_base, i64 %66 acq_rel, align 64
  store i64 %67, ptr %15, align 8
  %68 = load i64, ptr %15, align 8, !tbaa !14
  store i64 %68, ptr %6, align 8, !tbaa !14
  call void @llvm.lifetime.end.p0(i64 8, ptr %11) #9
  call void @llvm.lifetime.end.p0(i64 8, ptr %10) #9
  call void @llvm.lifetime.end.p0(i64 8, ptr %9) #9
  br label %69

69:                                               ; preds = %63, %40
  %70 = load i64, ptr %6, align 8, !tbaa !14
  %71 = load i64, ptr %4, align 8, !tbaa !14
  %72 = urem i64 %70, %71
  %73 = icmp ne i64 %72, 0
  br i1 %73, label %74, label %75

74:                                               ; preds = %69
  store ptr null, ptr %3, align 8
  store i32 1, ptr %16, align 4
  br label %78

75:                                               ; preds = %69
  %76 = load i64, ptr %6, align 8, !tbaa !14
  %77 = inttoptr i64 %76 to ptr
  store ptr %77, ptr %3, align 8
  store i32 1, ptr %16, align 4
  br label %78

78:                                               ; preds = %75, %74
  call void @llvm.lifetime.end.p0(i64 8, ptr %6) #9
  br label %79

79:                                               ; preds = %78, %32, %26, %22
  %80 = load ptr, ptr %3, align 8
  ret ptr %80
}