; Function Attrs: nounwind uwtable
define hidden ptr @_mi_os_get_aligned_hint(i64 noundef %0, i64 noundef %1) local_unnamed_addr #1 {
  %3 = add i64 %0, -33554433
  %or.cond = icmp ult i64 %3, -33554431
  %4 = load i64, ptr getelementptr inbounds nuw (i8, ptr @mi_os_mem_config, i64 32), align 8
  %5 = icmp ult i64 %4, 46
  %or.cond30 = select i1 %or.cond, i1 true, i1 %5
  br i1 %or.cond30, label %26, label %6

6:                                                ; preds = %2
  %7 = add i64 %1, 33554431
  %8 = and i64 %7, -33554432
  %9 = icmp ugt i64 %8, 1073741824
  br i1 %9, label %26, label %10

10:                                               ; preds = %6
  %11 = atomicrmw add ptr @aligned_base, i64 %8 acq_rel, align 64
  %12 = add i64 %11, -32985348833281
  %or.cond3 = icmp ult i64 %12, -32985348833280
  br i1 %or.cond3, label %13, label %23

13:                                               ; preds = %10
  %14 = tail call align 8 ptr @llvm.threadlocal.address.p0(ptr align 8 @_mi_heap_default)
  %15 = load ptr, ptr %14, align 8, !tbaa !15
  %16 = tail call i64 @_mi_heap_random_next(ptr noundef %15) #7
  %17 = shl i64 %16, 8
  %18 = and i64 %17, 4398012956672
  %19 = add nuw nsw i64 %18, 2199023255552
  %20 = add i64 %11, %8
  %21 = cmpxchg ptr @aligned_base, i64 %20, i64 %19 acq_rel acquire, align 64
  %22 = atomicrmw add ptr @aligned_base, i64 %8 acq_rel, align 64
  br label %23

23:                                               ; preds = %10, %13
  %.025 = phi i64 [ %22, %13 ], [ %11, %10 ]
  %24 = urem i64 %.025, %0
  %.not = icmp eq i64 %24, 0
  %25 = inttoptr i64 %.025 to ptr
  %.1 = select i1 %.not, ptr %25, ptr null
  br label %26

26:                                               ; preds = %6, %2, %23
  %.0 = phi ptr [ %.1, %23 ], [ null, %2 ], [ null, %6 ]
  ret ptr %.0
}